target datalayout = "e-m:e-p270:32:32-p271:32:32-p272:64:64-i64:64-i128:128-f80:128-n8:16:32:64-S128"
target triple = "x86_64-pc-linux-gnu"

%struct.wtap_reader = type { i32, i64, i64, i32, %struct.wtap_reader_buf, %struct.wtap_reader_buf, i8, i64, i64, i32, i32, i8, i64, i8, i32, ptr, %struct.z_stream_s, i8, ptr, ptr, %struct.LZ4F_frameInfo_t, [19 x i8], ptr, ptr }
%struct.wtap_reader_buf = type { ptr, ptr, i32 }
%struct.z_stream_s = type { ptr, i32, i64, ptr, i32, i64, ptr, ptr, ptr, ptr, ptr, i32, i64, i64 }
%struct.LZ4F_frameInfo_t = type { i32, i32, i32, i32, i64, i32, i32 }

; Function Attrs: nounwind null_pointer_is_valid sspstrong uwtable
define internal void @buf_reset(ptr noundef %0) #3 {
  %2 = alloca ptr, align 8
  store ptr %0, ptr %2, align 8
  %3 = load ptr, ptr %2, align 8
  %4 = getelementptr inbounds nuw %struct.wtap_reader_buf, ptr %3, i32 0, i32 0
  %5 = load ptr, ptr %4, align 8
  %6 = load ptr, ptr %2, align 8
  %7 = getelementptr inbounds nuw %struct.wtap_reader_buf, ptr %6, i32 0, i32 1
  store ptr %5, ptr %7, align 8
  %8 = load ptr, ptr %2, align 8
  %9 = getelementptr inbounds nuw %struct.wtap_reader_buf, ptr %8, i32 0, i32 2
  store i32 0, ptr %9, align 8
  ret void
}

; Function Attrs: nounwind null_pointer_is_valid sspstrong uwtable
define internal i32 @bytes_in_buffer(ptr noundef %0) #3 {
  %2 = alloca ptr, align 8
  store ptr %0, ptr %2, align 8
  %3 = load ptr, ptr %2, align 8
  %4 = getelementptr inbounds nuw %struct.wtap_reader_buf, ptr %3, i32 0, i32 1
  %5 = load ptr, ptr %4, align 8
  %6 = load ptr, ptr %2, align 8
  %7 = getelementptr inbounds nuw %struct.wtap_reader_buf, ptr %6, i32 0, i32 2
  %8 = load i32, ptr %7, align 8
  %9 = zext i32 %8 to i64
  %10 = getelementptr i8, ptr %5, i64 %9
  %11 = load ptr, ptr %2, align 8
  %12 = getelementptr inbounds nuw %struct.wtap_reader_buf, ptr %11, i32 0, i32 0
  %13 = load ptr, ptr %12, align 8
  %14 = ptrtoint ptr %10 to i64
  %15 = ptrtoint ptr %13 to i64
  %16 = sub i64 %14, %15
  %17 = trunc i64 %16 to i32
  ret i32 %17
}

; Function Attrs: null_pointer_is_valid sspstrong uwtable
define internal i32 @buf_read(ptr noundef %0, ptr noundef %1) #0 {
  %3 = alloca i32, align 4
  %4 = alloca ptr, align 8
  %5 = alloca ptr, align 8
  %6 = alloca i32, align 4
  %7 = alloca i32, align 4
  %8 = alloca ptr, align 8
  %9 = alloca i64, align 8
  %10 = alloca i32, align 4
  store ptr %0, ptr %4, align 8
  store ptr %1, ptr %5, align 8
  call void @llvm.lifetime.start.p0(i64 4, ptr %6) #14
  call void @llvm.lifetime.start.p0(i64 4, ptr %7) #14
  call void @llvm.lifetime.start.p0(i64 8, ptr %8) #14
  call void @llvm.lifetime.start.p0(i64 8, ptr %9) #14
  %11 = load ptr, ptr %4, align 8
  %12 = getelementptr inbounds nuw %struct.wtap_reader, ptr %11, i32 0, i32 3
  %13 = load i32, ptr %12, align 8
  %14 = load ptr, ptr %5, align 8
  %15 = call i32 @bytes_in_buffer(ptr noundef %14)
  %16 = sub i32 %13, %15
  store i32 %16, ptr %6, align 4
  %17 = load i32, ptr %6, align 4
  %18 = icmp eq i32 %17, 0
  br i1 %18, label %19, label %27

19:                                               ; preds = %2
  %20 = load ptr, ptr %5, align 8
  call void @buf_reset(ptr noundef %20)
  %21 = load ptr, ptr %5, align 8
  %22 = getelementptr inbounds nuw %struct.wtap_reader_buf, ptr %21, i32 0, i32 0
  %23 = load ptr, ptr %22, align 8
  store ptr %23, ptr %8, align 8
  %24 = load ptr, ptr %4, align 8
  %25 = getelementptr inbounds nuw %struct.wtap_reader, ptr %24, i32 0, i32 3
  %26 = load i32, ptr %25, align 8
  store i32 %26, ptr %7, align 4
  br label %37

27:                                               ; preds = %2
  %28 = load ptr, ptr %5, align 8
  %29 = getelementptr inbounds nuw %struct.wtap_reader_buf, ptr %28, i32 0, i32 1
  %30 = load ptr, ptr %29, align 8
  %31 = load ptr, ptr %5, align 8
  %32 = getelementptr inbounds nuw %struct.wtap_reader_buf, ptr %31, i32 0, i32 2
  %33 = load i32, ptr %32, align 8
  %34 = zext i32 %33 to i64
  %35 = getelementptr i8, ptr %30, i64 %34
  store ptr %35, ptr %8, align 8
  %36 = load i32, ptr %6, align 4
  store i32 %36, ptr %7, align 4
  br label %37

37:                                               ; preds = %27, %19
  %38 = load ptr, ptr %4, align 8
  %39 = getelementptr inbounds nuw %struct.wtap_reader, ptr %38, i32 0, i32 0
  %40 = load i32, ptr %39, align 8
  %41 = load ptr, ptr %8, align 8
  %42 = load i32, ptr %7, align 4
  %43 = zext i32 %42 to i64
  %44 = call i64 @read(i32 noundef %40, ptr noundef %41, i64 noundef %43)
  store i64 %44, ptr %9, align 8
  %45 = load i64, ptr %9, align 8
  %46 = icmp slt i64 %45, 0
  br i1 %46, label %47, label %54

47:                                               ; preds = %37
  %48 = call ptr @__errno_location() #17
  %49 = load i32, ptr %48, align 4
  %50 = load ptr, ptr %4, align 8
  %51 = getelementptr inbounds nuw %struct.wtap_reader, ptr %50, i32 0, i32 14
  store i32 %49, ptr %51, align 4
  %52 = load ptr, ptr %4, align 8
  %53 = getelementptr inbounds nuw %struct.wtap_reader, ptr %52, i32 0, i32 15
  store ptr null, ptr %53, align 8
  store i32 -1, ptr %3, align 4
  store i32 1, ptr %10, align 4
  br label %72

54:                                               ; preds = %37
  %55 = load i64, ptr %9, align 8
  %56 = icmp eq i64 %55, 0
  br i1 %56, label %57, label %60

57:                                               ; preds = %54
  %58 = load ptr, ptr %4, align 8
  %59 = getelementptr inbounds nuw %struct.wtap_reader, ptr %58, i32 0, i32 6
  store i8 1, ptr %59, align 8
  br label %60

60:                                               ; preds = %57, %54
  %61 = load i64, ptr %9, align 8
  %62 = load ptr, ptr %4, align 8
  %63 = getelementptr inbounds nuw %struct.wtap_reader, ptr %62, i32 0, i32 1
  %64 = load i64, ptr %63, align 8
  %65 = add i64 %64, %61
  store i64 %65, ptr %63, align 8
  %66 = load i64, ptr %9, align 8
  %67 = trunc i64 %66 to i32
  %68 = load ptr, ptr %5, align 8
  %69 = getelementptr inbounds nuw %struct.wtap_reader_buf, ptr %68, i32 0, i32 2
  %70 = load i32, ptr %69, align 8
  %71 = add i32 %70, %67
  store i32 %71, ptr %69, align 8
  store i32 0, ptr %3, align 4
  store i32 1, ptr %10, align 4
  br label %72

72:                                               ; preds = %60, %47
  call void @llvm.lifetime.end.p0(i64 8, ptr %9) #14
  call void @llvm.lifetime.end.p0(i64 8, ptr %8) #14
  call void @llvm.lifetime.end.p0(i64 4, ptr %7) #14
  call void @llvm.lifetime.end.p0(i64 4, ptr %6) #14
  %73 = load i32, ptr %3, align 4
  ret i32 %73
}

; Function Attrs: null_pointer_is_valid sspstrong uwtable
define internal i32 @fill_in_buffer(ptr noundef %0) #0 {
  %2 = alloca i32, align 4
  %3 = alloca ptr, align 8
  store ptr %0, ptr %3, align 8
  %4 = load ptr, ptr %3, align 8
  %5 = getelementptr inbounds nuw %struct.wtap_reader, ptr %4, i32 0, i32 14
  %6 = load i32, ptr %5, align 4
  %7 = icmp ne i32 %6, 0
  br i1 %7, label %8, label %9

8:                                                ; preds = %1
  store i32 -1, ptr %2, align 4
  br label %23

9:                                                ; preds = %1
  %10 = load ptr, ptr %3, align 8
  %11 = getelementptr inbounds nuw %struct.wtap_reader, ptr %10, i32 0, i32 6
  %12 = load i8, ptr %11, align 8, !range !9, !noundef !10
  %13 = trunc i8 %12 to i1
  br i1 %13, label %22, label %14

14:                                               ; preds = %9
  %15 = load ptr, ptr %3, align 8
  %16 = load ptr, ptr %3, align 8
  %17 = getelementptr inbounds nuw %struct.wtap_reader, ptr %16, i32 0, i32 4
  %18 = call i32 @buf_read(ptr noundef %15, ptr noundef %17)
  %19 = icmp slt i32 %18, 0
  br i1 %19, label %20, label %21

20:                                               ; preds = %14
  store i32 -1, ptr %2, align 4
  br label %23

21:                                               ; preds = %14
  br label %22

22:                                               ; preds = %21, %9
  store i32 0, ptr %2, align 4
  br label %23

23:                                               ; preds = %22, %20, %8
  %24 = load i32, ptr %2, align 4
  ret i32 %24
}

; Function Attrs: null_pointer_is_valid sspstrong uwtable
define internal i32 @gz_skipn(ptr noundef %0, i64 noundef %1) #0 {
  %3 = alloca i32, align 4
  %4 = alloca ptr, align 8
  %5 = alloca i64, align 8
  store ptr %0, ptr %4, align 8
  store i64 %1, ptr %5, align 8
  br label %6

6:                                                ; preds = %56, %2
  %7 = load i64, ptr %5, align 8
  %8 = icmp ne i64 %7, 0
  br i1 %8, label %9, label %59

9:                                                ; preds = %6
  %10 = load ptr, ptr %4, align 8
  %11 = getelementptr inbounds nuw %struct.wtap_reader, ptr %10, i32 0, i32 4
  %12 = getelementptr inbounds nuw %struct.wtap_reader_buf, ptr %11, i32 0, i32 2
  %13 = load i32, ptr %12, align 8
  %14 = icmp eq i32 %13, 0
  br i1 %14, label %15, label %20

15:                                               ; preds = %9
  %16 = load ptr, ptr %4, align 8
  %17 = call i32 @fill_in_buffer(ptr noundef %16)
  %18 = icmp eq i32 %17, -1
  br i1 %18, label %19, label %20

19:                                               ; preds = %15
  br label %42

20:                                               ; preds = %15, %9
  %21 = load ptr, ptr %4, align 8
  %22 = getelementptr inbounds nuw %struct.wtap_reader, ptr %21, i32 0, i32 4
  %23 = getelementptr inbounds nuw %struct.wtap_reader_buf, ptr %22, i32 0, i32 2
  %24 = load i32, ptr %23, align 8
  %25 = icmp eq i32 %24, 0
  br i1 %25, label %26, label %27

26:                                               ; preds = %20
  br label %40

27:                                               ; preds = %20
  %28 = load ptr, ptr %4, align 8
  %29 = getelementptr inbounds nuw %struct.wtap_reader, ptr %28, i32 0, i32 4
  %30 = getelementptr inbounds nuw %struct.wtap_reader_buf, ptr %29, i32 0, i32 2
  %31 = load i32, ptr %30, align 8
  %32 = add i32 %31, -1
  store i32 %32, ptr %30, align 8
  %33 = load ptr, ptr %4, align 8
  %34 = getelementptr inbounds nuw %struct.wtap_reader, ptr %33, i32 0, i32 4
  %35 = getelementptr inbounds nuw %struct.wtap_reader_buf, ptr %34, i32 0, i32 1
  %36 = load ptr, ptr %35, align 8
  %37 = getelementptr i8, ptr %36, i32 1
  store ptr %37, ptr %35, align 8
  %38 = load i8, ptr %36, align 1
  %39 = zext i8 %38 to i32
  br label %40

40:                                               ; preds = %27, %26
  %41 = phi i32 [ -1, %26 ], [ %39, %27 ]
  br label %42

42:                                               ; preds = %40, %19
  %43 = phi i32 [ -1, %19 ], [ %41, %40 ]
  %44 = icmp eq i32 %43, -1
  br i1 %44, label %45, label %56

45:                                               ; preds = %42
  %46 = load ptr, ptr %4, align 8
  %47 = getelementptr inbounds nuw %struct.wtap_reader, ptr %46, i32 0, i32 14
  %48 = load i32, ptr %47, align 4
  %49 = icmp eq i32 %48, 0
  br i1 %49, label %50, label %55

50:                                               ; preds = %45
  %51 = load ptr, ptr %4, align 8
  %52 = getelementptr inbounds nuw %struct.wtap_reader, ptr %51, i32 0, i32 14
  store i32 -12, ptr %52, align 4
  %53 = load ptr, ptr %4, align 8
  %54 = getelementptr inbounds nuw %struct.wtap_reader, ptr %53, i32 0, i32 15
  store ptr null, ptr %54, align 8
  br label %55

55:                                               ; preds = %50, %45
  store i32 -1, ptr %3, align 4
  br label %60

56:                                               ; preds = %42
  %57 = load i64, ptr %5, align 8
  %58 = add i64 %57, -1
  store i64 %58, ptr %5, align 8
  br label %6, !llvm.loop !29

59:                                               ; preds = %6
  store i32 0, ptr %3, align 4
  br label %60

60:                                               ; preds = %59, %55
  %61 = load i32, ptr %3, align 4
  ret i32 %61
}