; Function Attrs: nofree null_pointer_is_valid sspstrong uwtable
define internal fastcc range(i32 -1, 1) i32 @gz_skipn(ptr noundef captures(none) %0, i64 noundef range(i64 0, 65536) %1) unnamed_addr #12 {
  %.not15 = icmp eq i64 %1, 0
  br i1 %.not15, label %.loopexit, label %.lr.ph

.lr.ph:                                           ; preds = %2
  %3 = getelementptr inbounds nuw i8, ptr %0, i64 48
  %4 = getelementptr inbounds nuw i8, ptr %0, i64 132
  %5 = getelementptr inbounds nuw i8, ptr %0, i64 80
  %6 = getelementptr inbounds nuw i8, ptr %0, i64 32
  %7 = getelementptr inbounds nuw i8, ptr %0, i64 24
  %8 = getelementptr inbounds nuw i8, ptr %0, i64 40
  %9 = getelementptr inbounds nuw i8, ptr %0, i64 8
  %.pre = load i32, ptr %3, align 8
  br label %10

10:                                               ; preds = %.lr.ph, %fill_in_buffer.exit.thread13
  %.pr = phi i32 [ %.pre, %.lr.ph ], [ %44, %fill_in_buffer.exit.thread13 ]
  %.016 = phi i64 [ %1, %.lr.ph ], [ %47, %fill_in_buffer.exit.thread13 ]
  %11 = icmp eq i32 %.pr, 0
  br i1 %11, label %12, label %fill_in_buffer.exit.thread13

12:                                               ; preds = %10
  %13 = load i32, ptr %4, align 4
  %.not.i = icmp eq i32 %13, 0
  br i1 %.not.i, label %14, label %.loopexit

14:                                               ; preds = %12
  %15 = load i8, ptr %5, align 8, !range !9, !noundef !10
  %16 = trunc nuw i8 %15 to i1
  br i1 %16, label %fill_in_buffer.exit..critedge.loopexit_crit_edge, label %17

17:                                               ; preds = %14
  %18 = load i32, ptr %7, align 8
  %19 = load ptr, ptr %8, align 8
  %20 = load ptr, ptr %6, align 8
  %21 = ptrtoint ptr %19 to i64
  %22 = ptrtoint ptr %20 to i64
  %.neg.i.i = sub i64 %22, %21
  %.neg25.i.i = trunc i64 %.neg.i.i to i32
  %23 = add i32 %18, %.neg25.i.i
  %24 = icmp eq i32 %23, 0
  br i1 %24, label %25, label %26

25:                                               ; preds = %17
  store ptr %20, ptr %8, align 8
  store i32 0, ptr %3, align 8
  br label %26

26:                                               ; preds = %25, %17
  %.022.i.i = phi i32 [ %18, %25 ], [ %23, %17 ]
  %.021.i.i = phi ptr [ %20, %25 ], [ %19, %17 ]
  %27 = load i32, ptr %0, align 8
  %28 = zext i32 %.022.i.i to i64
  %29 = tail call i64 @read(i32 noundef %27, ptr noundef %.021.i.i, i64 noundef %28)
  %30 = icmp slt i64 %29, 0
  br i1 %30, label %buf_read.exit.thread.i, label %34

buf_read.exit.thread.i:                           ; preds = %26
  %31 = tail call ptr @__errno_location() #23
  %32 = load i32, ptr %31, align 4
  store i32 %32, ptr %4, align 4
  %33 = getelementptr inbounds nuw i8, ptr %0, i64 136
  store ptr null, ptr %33, align 8
  br label %.critedge

34:                                               ; preds = %26
  %35 = icmp eq i64 %29, 0
  br i1 %35, label %36, label %fill_in_buffer.exit

36:                                               ; preds = %34
  store i8 1, ptr %5, align 8
  br label %fill_in_buffer.exit

fill_in_buffer.exit:                              ; preds = %34, %36
  %37 = load i64, ptr %9, align 8
  %38 = add i64 %37, %29
  store i64 %38, ptr %9, align 8
  %39 = trunc i64 %29 to i32
  %40 = load i32, ptr %3, align 8
  %41 = add i32 %40, %39
  store i32 %41, ptr %3, align 8
  %42 = icmp eq i32 %41, 0
  br i1 %42, label %fill_in_buffer.exit..critedge.loopexit_crit_edge, label %fill_in_buffer.exit.thread13

fill_in_buffer.exit..critedge.loopexit_crit_edge: ; preds = %14, %fill_in_buffer.exit
  %.pre17.pre = load i32, ptr %4, align 4
  br label %.critedge

fill_in_buffer.exit.thread13:                     ; preds = %10, %fill_in_buffer.exit
  %43 = phi i32 [ %41, %fill_in_buffer.exit ], [ %.pr, %10 ]
  %44 = add i32 %43, -1
  store i32 %44, ptr %3, align 8
  %45 = load ptr, ptr %8, align 8
  %46 = getelementptr i8, ptr %45, i64 1
  store ptr %46, ptr %8, align 8
  %47 = add nsw i64 %.016, -1
  %.not = icmp eq i64 %47, 0
  br i1 %.not, label %.loopexit, label %10, !llvm.loop !45

.critedge:                                        ; preds = %fill_in_buffer.exit..critedge.loopexit_crit_edge, %buf_read.exit.thread.i
  %48 = phi i32 [ %32, %buf_read.exit.thread.i ], [ %.pre17.pre, %fill_in_buffer.exit..critedge.loopexit_crit_edge ]
  %49 = icmp eq i32 %48, 0
  br i1 %49, label %50, label %.loopexit

50:                                               ; preds = %.critedge
  store i32 -12, ptr %4, align 4
  %51 = getelementptr inbounds nuw i8, ptr %0, i64 136
  store ptr null, ptr %51, align 8
  br label %.loopexit

.loopexit:                                        ; preds = %12, %fill_in_buffer.exit.thread13, %2, %.critedge, %50
  %.010 = phi i32 [ -1, %50 ], [ -1, %.critedge ], [ 0, %2 ], [ -1, %12 ], [ 0, %fill_in_buffer.exit.thread13 ]
  ret i32 %.010
}